; Function Attrs: mustprogress uwtable
define internal fastcc noundef zeroext i1 @"_ZN9__gnu_cxx5__ops10_Iter_predIZN5ZXing22CharacterSetFromStringESt17basic_string_viewIcSt11char_traitsIcEEE3$_0EclIPNS2_16CharacterSetNameEEEbT_"(ptr noundef nonnull align 8 dereferenceable(32) %0, i64 %.0.val, ptr %.8.val) unnamed_addr #0 align 2 personality ptr @__gxx_personality_v0 {
  %2 = alloca %"class.std::__cxx11::basic_string", align 8
  call void @llvm.lifetime.start.p0(i64 32, ptr nonnull %2)
  call fastcc void @_ZN5ZXingL13NormalizeNameB5cxx11ESt17basic_string_viewIcSt11char_traitsIcEE(ptr dead_on_unwind noalias nonnull writable align 8 %2, i64 %.0.val, ptr %.8.val)
  %3 = call noundef i64 @_ZNKSt7__cxx1112basic_stringIcSt11char_traitsIcESaIcEE4sizeEv(ptr noundef nonnull align 8 dereferenceable(32) %2) #8
  %4 = call noundef i64 @_ZNKSt7__cxx1112basic_stringIcSt11char_traitsIcESaIcEE4sizeEv(ptr noundef nonnull align 8 dereferenceable(32) %0) #8
  %5 = icmp eq i64 %3, %4
  br i1 %5, label %6, label %"_ZZN5ZXing22CharacterSetFromStringESt17basic_string_viewIcSt11char_traitsIcEEENK3$_0clINS_16CharacterSetNameEEEDaRT_.exit"

6:                                                ; preds = %1
  %7 = call noundef ptr @_ZNKSt7__cxx1112basic_stringIcSt11char_traitsIcESaIcEE4dataEv(ptr noundef nonnull align 8 dereferenceable(32) %2) #8
  %8 = call noundef ptr @_ZNKSt7__cxx1112basic_stringIcSt11char_traitsIcESaIcEE4dataEv(ptr noundef nonnull align 8 dereferenceable(32) %0) #8
  %9 = call noundef i64 @_ZNKSt7__cxx1112basic_stringIcSt11char_traitsIcESaIcEE4sizeEv(ptr noundef nonnull align 8 dereferenceable(32) %2) #8
  %10 = icmp eq i64 %9, 0
  br i1 %10, label %"_ZZN5ZXing22CharacterSetFromStringESt17basic_string_viewIcSt11char_traitsIcEEENK3$_0clINS_16CharacterSetNameEEEDaRT_.exit", label %11

11:                                               ; preds = %6
  %bcmp.i.i = call i32 @bcmp(ptr %7, ptr %8, i64 %9)
  %12 = icmp eq i32 %bcmp.i.i, 0
  br label %"_ZZN5ZXing22CharacterSetFromStringESt17basic_string_viewIcSt11char_traitsIcEEENK3$_0clINS_16CharacterSetNameEEEDaRT_.exit"

"_ZZN5ZXing22CharacterSetFromStringESt17basic_string_viewIcSt11char_traitsIcEEENK3$_0clINS_16CharacterSetNameEEEDaRT_.exit": ; preds = %1, %6, %11
  %13 = phi i1 [ false, %1 ], [ %12, %11 ], [ true, %6 ]
  call void @_ZNSt7__cxx1112basic_stringIcSt11char_traitsIcESaIcEED1Ev(ptr noundef nonnull align 8 dereferenceable(32) %2) #8
  call void @llvm.lifetime.end.p0(i64 32, ptr nonnull %2)
  ret i1 %13
}